target datalayout = "e-m:e-p270:32:32-p271:32:32-p272:64:64-i64:64-i128:128-f80:128-n8:16:32:64-S128"
target triple = "x86_64-pc-linux-gnu"

; Function Attrs: inlinehint mustprogress uwtable
define linkonce_odr noundef i32 @_ZN6icu_7717CharacterIterator10setToStartEv(ptr noundef nonnull align 8 dereferenceable(24) %0) #6 comdat align 2 {
  %2 = alloca ptr, align 8
  store ptr %0, ptr %2, align 8, !tbaa !12
  %3 = load ptr, ptr %2, align 8
  %4 = load ptr, ptr %3, align 8, !tbaa !8
  %5 = getelementptr inbounds ptr, ptr %4, i64 24
  %6 = load ptr, ptr %5, align 8
  %7 = call noundef i32 %6(ptr noundef nonnull align 8 dereferenceable(24) %3, i32 noundef 0, i32 noundef 0)
  ret i32 %7
}

; Function Attrs: mustprogress uwtable
define noundef i32 @_ZN6icu_7717CharacterIterator14first32PostIncEv(ptr noundef nonnull align 8 dereferenceable(24) %0) unnamed_addr #5 align 2 {
  %2 = alloca ptr, align 8
  store ptr %0, ptr %2, align 8, !tbaa !12
  %3 = load ptr, ptr %2, align 8
  %4 = call noundef i32 @_ZN6icu_7717CharacterIterator10setToStartEv(ptr noundef nonnull align 8 dereferenceable(24) %3)
  %5 = load ptr, ptr %3, align 8, !tbaa !8
  %6 = getelementptr inbounds ptr, ptr %5, i64 6
  %7 = load ptr, ptr %6, align 8
  %8 = call noundef i32 %7(ptr noundef nonnull align 8 dereferenceable(8) %3)
  ret i32 %8
}